target datalayout = "e-m:e-p270:32:32-p271:32:32-p272:64:64-i64:64-i128:128-f80:128-n8:16:32:64-S128"
target triple = "x86_64-pc-linux-gnu"

%struct.AVIOContext = type { ptr, ptr, i32, ptr, ptr, ptr, ptr, ptr, ptr, i64, i32, i32, i32, i32, i32, i64, ptr, ptr, ptr, ptr, i32, i32, ptr, ptr, ptr, i32, ptr, i64, i64 }
%struct.AVBPrint = type { ptr, i32, i32, i32, [1 x i8], [1000 x i8] }

; Function Attrs: inlinehint nounwind uwtable
define internal i32 @av_bprint_is_complete(ptr noundef %0) #7 {
  %2 = alloca ptr, align 8
  store ptr %0, ptr %2, align 8, !tbaa !74
  %3 = load ptr, ptr %2, align 8, !tbaa !74
  %4 = getelementptr inbounds nuw %struct.AVBPrint, ptr %3, i32 0, i32 1
  %5 = load i32, ptr %4, align 8, !tbaa !76
  %6 = load ptr, ptr %2, align 8, !tbaa !74
  %7 = getelementptr inbounds nuw %struct.AVBPrint, ptr %6, i32 0, i32 2
  %8 = load i32, ptr %7, align 4, !tbaa !96
  %9 = icmp ult i32 %5, %8
  %10 = zext i1 %9 to i32
  ret i32 %10
}

; Function Attrs: nounwind uwtable
define i32 @avio_vprintf(ptr noundef %0, ptr noundef %1, ptr noundef %2) #0 {
  %4 = alloca i32, align 4
  %5 = alloca ptr, align 8
  %6 = alloca ptr, align 8
  %7 = alloca ptr, align 8
  %8 = alloca %struct.AVBPrint, align 8
  %9 = alloca i32, align 4
  store ptr %0, ptr %5, align 8, !tbaa !14
  store ptr %1, ptr %6, align 8, !tbaa !9
  store ptr %2, ptr %7, align 8, !tbaa !93
  call void @llvm.lifetime.start.p0(i64 1024, ptr %8) #12
  call void @av_bprint_init(ptr noundef %8, i32 noundef 0, i32 noundef 2147483647)
  %10 = load ptr, ptr %6, align 8, !tbaa !9
  %11 = load ptr, ptr %7, align 8, !tbaa !93
  call void @av_vbprintf(ptr noundef %8, ptr noundef %10, ptr noundef %11)
  %12 = call i32 @av_bprint_is_complete(ptr noundef %8)
  %13 = icmp ne i32 %12, 0
  br i1 %13, label %18, label %14

14:                                               ; preds = %3
  %15 = call i32 @av_bprint_finalize(ptr noundef %8, ptr noundef null)
  %16 = load ptr, ptr %5, align 8, !tbaa !14
  %17 = getelementptr inbounds nuw %struct.AVIOContext, ptr %16, i32 0, i32 11
  store i32 -12, ptr %17, align 4, !tbaa !32
  store i32 -12, ptr %4, align 4
  store i32 1, ptr %9, align 4
  br label %27

18:                                               ; preds = %3
  %19 = load ptr, ptr %5, align 8, !tbaa !14
  %20 = getelementptr inbounds nuw %struct.AVBPrint, ptr %8, i32 0, i32 0
  %21 = load ptr, ptr %20, align 8, !tbaa !95
  %22 = getelementptr inbounds nuw %struct.AVBPrint, ptr %8, i32 0, i32 1
  %23 = load i32, ptr %22, align 8, !tbaa !76
  call void @avio_write(ptr noundef %19, ptr noundef %21, i32 noundef %23)
  %24 = call i32 @av_bprint_finalize(ptr noundef %8, ptr noundef null)
  %25 = getelementptr inbounds nuw %struct.AVBPrint, ptr %8, i32 0, i32 1
  %26 = load i32, ptr %25, align 8, !tbaa !76
  store i32 %26, ptr %4, align 4
  store i32 1, ptr %9, align 4
  br label %27

27:                                               ; preds = %18, %14
  call void @llvm.lifetime.end.p0(i64 1024, ptr %8) #12
  %28 = load i32, ptr %4, align 4
  ret i32 %28
}