; Function Attrs: nounwind uwtable
define i32 @avio_vprintf(ptr noundef %0, ptr noundef %1, ptr noundef %2) local_unnamed_addr #3 {
  %4 = alloca %struct.AVBPrint, align 8
  call void @llvm.lifetime.start.p0(i64 1024, ptr nonnull %4) #14
  call void @av_bprint_init(ptr noundef nonnull %4, i32 noundef 0, i32 noundef 2147483647) #14
  call void @av_vbprintf(ptr noundef nonnull %4, ptr noundef %1, ptr noundef %2) #14
  %5 = getelementptr inbounds nuw i8, ptr %4, i64 8
  %.val = load i32, ptr %5, align 8, !tbaa !58
  %6 = getelementptr inbounds nuw i8, ptr %4, i64 12
  %.val4 = load i32, ptr %6, align 4, !tbaa !60
  %.not = icmp ult i32 %.val, %.val4
  br i1 %.not, label %10, label %7

7:                                                ; preds = %3
  %8 = call i32 @av_bprint_finalize(ptr noundef nonnull %4, ptr noundef null) #14
  %9 = getelementptr inbounds nuw i8, ptr %0, i64 84
  store i32 -12, ptr %9, align 4, !tbaa !34
  br label %14

10:                                               ; preds = %3
  %11 = load ptr, ptr %4, align 8, !tbaa !72
  call void @avio_write(ptr noundef %0, ptr noundef %11, i32 noundef %.val)
  %12 = call i32 @av_bprint_finalize(ptr noundef nonnull %4, ptr noundef null) #14
  %13 = load i32, ptr %5, align 8, !tbaa !58
  br label %14

14:                                               ; preds = %10, %7
  %.0 = phi i32 [ %13, %10 ], [ -12, %7 ]
  call void @llvm.lifetime.end.p0(i64 1024, ptr nonnull %4) #14
  ret i32 %.0
}